target datalayout = "e-m:e-p270:32:32-p271:32:32-p272:64:64-i64:64-i128:128-f80:128-n8:16:32:64-S128"
target triple = "x86_64-pc-linux-gnu"

; Function Attrs: mustprogress uwtable
define noundef zeroext i1 @_ZN5ImGui11RadioButtonEPKcPii(ptr noundef %0, ptr noundef %1, i32 noundef %2) #9 {
  %4 = alloca ptr, align 8
  %5 = alloca ptr, align 8
  %6 = alloca i32, align 4
  %7 = alloca i8, align 1
  store ptr %0, ptr %4, align 8, !tbaa !3
  store ptr %1, ptr %5, align 8, !tbaa !259
  store i32 %2, ptr %6, align 4, !tbaa !8
  call void @llvm.lifetime.start.p0(i64 1, ptr %7) #17
  %8 = load ptr, ptr %4, align 8, !tbaa !3
  %9 = load ptr, ptr %5, align 8, !tbaa !259
  %10 = load i32, ptr %9, align 4, !tbaa !8
  %11 = load i32, ptr %6, align 4, !tbaa !8
  %12 = icmp eq i32 %10, %11
  %13 = call noundef zeroext i1 @_ZN5ImGui11RadioButtonEPKcb(ptr noundef %8, i1 noundef zeroext %12)
  %14 = zext i1 %13 to i8
  store i8 %14, ptr %7, align 1, !tbaa !70
  %15 = load i8, ptr %7, align 1, !tbaa !70, !range !62, !noundef !63
  %16 = trunc i8 %15 to i1
  br i1 %16, label %17, label %20

17:                                               ; preds = %3
  %18 = load i32, ptr %6, align 4, !tbaa !8
  %19 = load ptr, ptr %5, align 8, !tbaa !259
  store i32 %18, ptr %19, align 4, !tbaa !8
  br label %20

20:                                               ; preds = %17, %3
  %21 = load i8, ptr %7, align 1, !tbaa !70, !range !62, !noundef !63
  %22 = trunc i8 %21 to i1
  call void @llvm.lifetime.end.p0(i64 1, ptr %7) #17
  ret i1 %22
}