; Function Attrs: mustprogress uwtable
define noundef zeroext i1 @_ZN5ImGui11RadioButtonEPKcPii(ptr noundef %0, ptr noundef captures(none) %1, i32 noundef %2) local_unnamed_addr #6 {
  %4 = load i32, ptr %1, align 4, !tbaa !177
  %5 = icmp eq i32 %4, %2
  %6 = tail call noundef zeroext i1 @_ZN5ImGui11RadioButtonEPKcb(ptr noundef %0, i1 noundef zeroext %5)
  br i1 %6, label %7, label %8

7:                                                ; preds = %3
  store i32 %2, ptr %1, align 4, !tbaa !177
  br label %8

8:                                                ; preds = %7, %3
  ret i1 %6
}